target datalayout = "e-m:e-p270:32:32-p271:32:32-p272:64:64-i64:64-i128:128-f80:128-n8:16:32:64-S128"
target triple = "x86_64-pc-linux-gnu"

@hf_fcs_platformname_len = internal global i32 0, align 4
@hf_fcs_platformname = internal global i32 0, align 4
@hf_fcfcs_num_platform_name_entries = internal global i32 0, align 4

; Function Attrs: nounwind uwtable
define internal void @dissect_fcfcs_gpnl(ptr noundef %0, ptr noundef %1, i32 noundef %2) #0 {
  %4 = alloca ptr, align 8
  %5 = alloca ptr, align 8
  %6 = alloca i32, align 4
  %7 = alloca i32, align 4
  %8 = alloca i32, align 4
  %9 = alloca i32, align 4
  %10 = alloca i32, align 4
  store ptr %0, ptr %4, align 8
  store ptr %1, ptr %5, align 8
  store i32 %2, ptr %6, align 4
  store i32 16, ptr %7, align 4
  %11 = load ptr, ptr %5, align 8
  %12 = icmp ne ptr %11, null
  br i1 %12, label %13, label %53

13:                                               ; preds = %3
  %14 = load i32, ptr %6, align 4
  %15 = icmp ne i32 %14, 0
  br i1 %15, label %52, label %16

16:                                               ; preds = %13
  %17 = load ptr, ptr %5, align 8
  %18 = load i32, ptr @hf_fcfcs_num_platform_name_entries, align 4
  %19 = load ptr, ptr %4, align 8
  %20 = load i32, ptr %7, align 4
  %21 = call ptr @proto_tree_add_item_ret_uint(ptr noundef %17, i32 noundef %18, ptr noundef %19, i32 noundef %20, i32 noundef 4, i32 noundef 0, ptr noundef %8)
  %22 = load i32, ptr %7, align 4
  %23 = add i32 %22, 4
  store i32 %23, ptr %7, align 4
  store i32 0, ptr %9, align 4
  br label %24

24:                                               ; preds = %48, %16
  %25 = load i32, ptr %9, align 4
  %26 = load i32, ptr %8, align 4
  %27 = icmp ult i32 %25, %26
  br i1 %27, label %28, label %51

28:                                               ; preds = %24
  %29 = load ptr, ptr %4, align 8
  %30 = load i32, ptr %7, align 4
  %31 = call zeroext i8 @tvb_get_guint8(ptr noundef %29, i32 noundef %30)
  %32 = zext i8 %31 to i32
  store i32 %32, ptr %10, align 4
  %33 = load ptr, ptr %5, align 8
  %34 = load i32, ptr @hf_fcs_platformname_len, align 4
  %35 = load ptr, ptr %4, align 8
  %36 = load i32, ptr %7, align 4
  %37 = load i32, ptr %10, align 4
  %38 = call ptr @proto_tree_add_uint(ptr noundef %33, i32 noundef %34, ptr noundef %35, i32 noundef %36, i32 noundef 1, i32 noundef %37)
  %39 = load ptr, ptr %5, align 8
  %40 = load i32, ptr @hf_fcs_platformname, align 4
  %41 = load ptr, ptr %4, align 8
  %42 = load i32, ptr %7, align 4
  %43 = add i32 %42, 1
  %44 = load i32, ptr %10, align 4
  %45 = call ptr @proto_tree_add_item(ptr noundef %39, i32 noundef %40, ptr noundef %41, i32 noundef %43, i32 noundef %44, i32 noundef 0)
  %46 = load i32, ptr %7, align 4
  %47 = add i32 %46, 256
  store i32 %47, ptr %7, align 4
  br label %48

48:                                               ; preds = %28
  %49 = load i32, ptr %9, align 4
  %50 = add i32 %49, 1
  store i32 %50, ptr %9, align 4
  br label %24, !llvm.loop !12

51:                                               ; preds = %24
  br label %52

52:                                               ; preds = %51, %13
  br label %53

53:                                               ; preds = %52, %3
  ret void
}