; Function Attrs: nounwind uwtable
define internal fastcc void @dissect_fcfcs_gpnl(ptr noundef %0, ptr noundef %1, i32 noundef range(i32 0, 2) %2) unnamed_addr #0 {
  %4 = alloca i32, align 4
  %5 = icmp eq ptr %1, null
  %6 = icmp ne i32 %2, 0
  %or.cond = or i1 %5, %6
  br i1 %or.cond, label %.loopexit, label %7

7:                                                ; preds = %3
  %8 = load i32, ptr @hf_fcfcs_num_platform_name_entries, align 4
  %9 = call ptr @proto_tree_add_item_ret_uint(ptr noundef nonnull %1, i32 noundef %8, ptr noundef %0, i32 noundef 16, i32 noundef 4, i32 noundef 0, ptr noundef nonnull %4) #4
  %10 = load i32, ptr %4, align 4
  %.not = icmp eq i32 %10, 0
  br i1 %.not, label %.loopexit, label %.lr.ph

.lr.ph:                                           ; preds = %7, %.lr.ph
  %.022 = phi i32 [ %18, %.lr.ph ], [ 20, %7 ]
  %.01921 = phi i32 [ %19, %.lr.ph ], [ 0, %7 ]
  %11 = call zeroext i8 @tvb_get_guint8(ptr noundef %0, i32 noundef %.022) #4
  %12 = zext i8 %11 to i32
  %13 = load i32, ptr @hf_fcs_platformname_len, align 4
  %14 = call ptr @proto_tree_add_uint(ptr noundef nonnull %1, i32 noundef %13, ptr noundef %0, i32 noundef %.022, i32 noundef 1, i32 noundef %12) #4
  %15 = load i32, ptr @hf_fcs_platformname, align 4
  %16 = or disjoint i32 %.022, 1
  %17 = call ptr @proto_tree_add_item(ptr noundef nonnull %1, i32 noundef %15, ptr noundef %0, i32 noundef %16, i32 noundef %12, i32 noundef 0) #4
  %18 = add i32 %.022, 256
  %19 = add nuw i32 %.01921, 1
  %20 = load i32, ptr %4, align 4
  %21 = icmp ult i32 %19, %20
  br i1 %21, label %.lr.ph, label %.loopexit, !llvm.loop !12

.loopexit:                                        ; preds = %.lr.ph, %7, %3
  ret void
}